; Function Attrs: mustprogress nounwind uwtable
define hidden void @_ZN4nori4MeshD0Ev(ptr noundef nonnull align 8 dereferenceable(176) %0) unnamed_addr #3 align 2 personality ptr @__gxx_personality_v0 {
  store ptr getelementptr inbounds ({ [9 x ptr] }, ptr @_ZTVN4nori4MeshE, i64 0, i32 0, i64 2), ptr %0, align 8
  %2 = getelementptr inbounds i8, ptr %0, i64 136
  %3 = load ptr, ptr %2, align 8
  %4 = icmp eq ptr %3, null
  br i1 %4, label %9, label %5

5:                                                ; preds = %1
  %6 = load ptr, ptr %3, align 8
  %7 = getelementptr inbounds i8, ptr %6, i64 8
  %8 = load ptr, ptr %7, align 8
  tail call void %8(ptr noundef nonnull align 8 dereferenceable(8) %3) #21
  br label %9

9:                                                ; preds = %5, %1
  %10 = getelementptr inbounds i8, ptr %0, i64 144
  %11 = load ptr, ptr %10, align 8
  %12 = icmp eq ptr %11, null
  br i1 %12, label %_ZN4nori4MeshD2Ev.exit, label %13

13:                                               ; preds = %9
  %14 = load ptr, ptr %11, align 8
  %15 = getelementptr inbounds i8, ptr %14, i64 8
  %16 = load ptr, ptr %15, align 8
  tail call void %16(ptr noundef nonnull align 8 dereferenceable(8) %11) #21
  br label %_ZN4nori4MeshD2Ev.exit

_ZN4nori4MeshD2Ev.exit:                           ; preds = %9, %13
  %17 = getelementptr inbounds i8, ptr %0, i64 112
  %18 = load ptr, ptr %17, align 8
  tail call void @free(ptr noundef %18) #21
  %19 = getelementptr inbounds i8, ptr %0, i64 88
  %20 = load ptr, ptr %19, align 8
  tail call void @free(ptr noundef %20) #21
  %21 = getelementptr inbounds i8, ptr %0, i64 64
  %22 = load ptr, ptr %21, align 8
  tail call void @free(ptr noundef %22) #21
  %23 = getelementptr inbounds i8, ptr %0, i64 40
  %24 = load ptr, ptr %23, align 8
  tail call void @free(ptr noundef %24) #21
  %25 = getelementptr inbounds i8, ptr %0, i64 8
  tail call void @_ZNSt7__cxx1112basic_stringIcSt11char_traitsIcESaIcEED1Ev(ptr noundef nonnull align 8 dereferenceable(32) %25) #21
  tail call void @_ZdlPv(ptr noundef nonnull %0) #22
  ret void
}